target datalayout = "e-m:e-p270:32:32-p271:32:32-p272:64:64-i64:64-i128:128-f80:128-n8:16:32:64-S128"
target triple = "x86_64-pc-linux-gnu"

%struct.Ivy_Store_t_ = type { i32, i32, i32, i32, [256 x %struct.Ivy_Cut_t_] }
%struct.Ivy_Cut_t_ = type { i32, i16, i16, [6 x i32], i32 }
%struct.Ivy_Man_t_ = type { ptr, ptr, ptr, ptr, ptr, %struct.Ivy_Obj_t_, [8 x i32], i32, i32, ptr, i32, i32, i32, i32, ptr, i32, ptr, ptr, ptr, i32, ptr, ptr, ptr, i64, i64 }
%struct.Ivy_Obj_t_ = type { i32, i32, i32, i32, ptr, ptr, ptr, ptr, ptr, ptr, ptr, ptr }
%struct.Vec_Ptr_t_ = type { i32, i32, ptr }
%struct.timespec = type { i64, i64 }

@.str.5 = private unnamed_addr constant [46 x i8] c"Cannot compute cuts for more than %d inputs.\0A\00", align 1
@.str.6 = private unnamed_addr constant [65 x i8] c"All = %6d. Minus = %6d. Triv = %6d.   Node = %6d. Satur = %6d.  \00", align 1
@.str.7 = private unnamed_addr constant [5 x i8] c"%s =\00", align 1
@.str.8 = private unnamed_addr constant [5 x i8] c"Time\00", align 1
@.str.9 = private unnamed_addr constant [11 x i8] c"%9.2f sec\0A\00", align 1

; Function Attrs: inlinehint nounwind uwtable
define internal i32 @Ivy_ManPiNum(ptr noundef %0) #2 {
  %2 = alloca ptr, align 8
  store ptr %0, ptr %2, align 8, !tbaa !3
  %3 = load ptr, ptr %2, align 8, !tbaa !3
  %4 = getelementptr inbounds nuw %struct.Ivy_Man_t_, ptr %3, i32 0, i32 6
  %5 = getelementptr inbounds [8 x i32], ptr %4, i64 0, i64 1
  %6 = load i32, ptr %5, align 4, !tbaa !8
  ret i32 %6
}

; Function Attrs: inlinehint nounwind uwtable
define internal i32 @Ivy_ObjIsNode(ptr noundef %0) #2 {
  %2 = alloca ptr, align 8
  store ptr %0, ptr %2, align 8, !tbaa !19
  %3 = load ptr, ptr %2, align 8, !tbaa !19
  %4 = getelementptr inbounds nuw %struct.Ivy_Obj_t_, ptr %3, i32 0, i32 2
  %5 = load i32, ptr %4, align 8
  %6 = and i32 %5, 15
  %7 = icmp eq i32 %6, 5
  br i1 %7, label %14, label %8

8:                                                ; preds = %1
  %9 = load ptr, ptr %2, align 8, !tbaa !19
  %10 = getelementptr inbounds nuw %struct.Ivy_Obj_t_, ptr %9, i32 0, i32 2
  %11 = load i32, ptr %10, align 8
  %12 = and i32 %11, 15
  %13 = icmp eq i32 %12, 6
  br label %14

14:                                               ; preds = %8, %1
  %15 = phi i1 [ true, %1 ], [ %13, %8 ]
  %16 = zext i1 %15 to i32
  ret i32 %16
}

; Function Attrs: inlinehint nounwind uwtable
define internal ptr @Vec_PtrEntry(ptr noundef %0, i32 noundef %1) #2 {
  %3 = alloca ptr, align 8
  %4 = alloca i32, align 4
  store ptr %0, ptr %3, align 8, !tbaa !29
  store i32 %1, ptr %4, align 4, !tbaa !8
  %5 = load ptr, ptr %3, align 8, !tbaa !29
  %6 = getelementptr inbounds nuw %struct.Vec_Ptr_t_, ptr %5, i32 0, i32 2
  %7 = load ptr, ptr %6, align 8, !tbaa !32
  %8 = load i32, ptr %4, align 4, !tbaa !8
  %9 = sext i32 %8 to i64
  %10 = getelementptr inbounds ptr, ptr %7, i64 %9
  %11 = load ptr, ptr %10, align 8, !tbaa !33
  ret ptr %11
}

; Function Attrs: inlinehint nounwind uwtable
define internal i32 @Vec_PtrSize(ptr noundef %0) #2 {
  %2 = alloca ptr, align 8
  store ptr %0, ptr %2, align 8, !tbaa !29
  %3 = load ptr, ptr %2, align 8, !tbaa !29
  %4 = getelementptr inbounds nuw %struct.Vec_Ptr_t_, ptr %3, i32 0, i32 1
  %5 = load i32, ptr %4, align 4, !tbaa !30
  ret i32 %5
}

; Function Attrs: inlinehint nounwind uwtable
define internal i32 @Ivy_ManNodeNum(ptr noundef %0) #2 {
  %2 = alloca ptr, align 8
  store ptr %0, ptr %2, align 8, !tbaa !3
  %3 = load ptr, ptr %2, align 8, !tbaa !3
  %4 = getelementptr inbounds nuw %struct.Ivy_Man_t_, ptr %3, i32 0, i32 6
  %5 = getelementptr inbounds [8 x i32], ptr %4, i64 0, i64 5
  %6 = load i32, ptr %5, align 4, !tbaa !8
  %7 = load ptr, ptr %2, align 8, !tbaa !3
  %8 = getelementptr inbounds nuw %struct.Ivy_Man_t_, ptr %7, i32 0, i32 6
  %9 = getelementptr inbounds [8 x i32], ptr %8, i64 0, i64 6
  %10 = load i32, ptr %9, align 8, !tbaa !8
  %11 = add nsw i32 %6, %10
  ret i32 %11
}

; Function Attrs: inlinehint nounwind uwtable
define internal i64 @Abc_Clock() #2 {
  %1 = alloca i64, align 8
  %2 = alloca %struct.timespec, align 8
  %3 = alloca i32, align 4
  %4 = alloca i64, align 8
  call void @llvm.lifetime.start.p0(i64 16, ptr %2) #10
  %5 = call i32 @clock_gettime(i32 noundef 1, ptr noundef %2) #10
  %6 = icmp slt i32 %5, 0
  br i1 %6, label %7, label %8

7:                                                ; preds = %0
  store i64 -1, ptr %1, align 8
  store i32 1, ptr %3, align 4
  br label %19

8:                                                ; preds = %0
  call void @llvm.lifetime.start.p0(i64 8, ptr %4) #10
  %9 = getelementptr inbounds nuw %struct.timespec, ptr %2, i32 0, i32 0
  %10 = load i64, ptr %9, align 8, !tbaa !102
  %11 = mul nsw i64 %10, 1000000
  store i64 %11, ptr %4, align 8, !tbaa !10
  %12 = getelementptr inbounds nuw %struct.timespec, ptr %2, i32 0, i32 1
  %13 = load i64, ptr %12, align 8, !tbaa !104
  %14 = mul nsw i64 %13, 1000000
  %15 = sdiv i64 %14, 1000000000
  %16 = load i64, ptr %4, align 8, !tbaa !10
  %17 = add nsw i64 %16, %15
  store i64 %17, ptr %4, align 8, !tbaa !10
  %18 = load i64, ptr %4, align 8, !tbaa !10
  store i64 %18, ptr %1, align 8
  store i32 1, ptr %3, align 4
  call void @llvm.lifetime.end.p0(i64 8, ptr %4) #10
  br label %19

19:                                               ; preds = %8, %7
  call void @llvm.lifetime.end.p0(i64 16, ptr %2) #10
  %20 = load i64, ptr %1, align 8
  ret i64 %20
}

; Function Attrs: nounwind uwtable
define void @Ivy_CutComputeAll(ptr noundef %0, i32 noundef %1) #0 {
  %3 = alloca ptr, align 8
  %4 = alloca i32, align 4
  %5 = alloca ptr, align 8
  %6 = alloca ptr, align 8
  %7 = alloca i32, align 4
  %8 = alloca i32, align 4
  %9 = alloca i32, align 4
  %10 = alloca i32, align 4
  %11 = alloca i32, align 4
  %12 = alloca i64, align 8
  %13 = alloca i32, align 4
  store ptr %0, ptr %3, align 8, !tbaa !3
  store i32 %1, ptr %4, align 4, !tbaa !8
  call void @llvm.lifetime.start.p0(i64 8, ptr %5) #10
  call void @llvm.lifetime.start.p0(i64 8, ptr %6) #10
  call void @llvm.lifetime.start.p0(i64 4, ptr %7) #10
  call void @llvm.lifetime.start.p0(i64 4, ptr %8) #10
  call void @llvm.lifetime.start.p0(i64 4, ptr %9) #10
  call void @llvm.lifetime.start.p0(i64 4, ptr %10) #10
  call void @llvm.lifetime.start.p0(i64 4, ptr %11) #10
  call void @llvm.lifetime.start.p0(i64 8, ptr %12) #10
  %14 = call i64 @Abc_Clock()
  store i64 %14, ptr %12, align 8, !tbaa !10
  %15 = load i32, ptr %4, align 4, !tbaa !8
  %16 = icmp sgt i32 %15, 6
  br i1 %16, label %17, label %19

17:                                               ; preds = %2
  %18 = call i32 (ptr, ...) @printf(ptr noundef @.str.5, i32 noundef 6)
  store i32 1, ptr %13, align 4
  br label %90

19:                                               ; preds = %2
  store i32 0, ptr %11, align 4, !tbaa !8
  store i32 0, ptr %10, align 4, !tbaa !8
  %20 = load ptr, ptr %3, align 8, !tbaa !3
  %21 = call i32 @Ivy_ManNodeNum(ptr noundef %20)
  %22 = sub nsw i32 0, %21
  store i32 %22, ptr %9, align 4, !tbaa !8
  store i32 %22, ptr %8, align 4, !tbaa !8
  store i32 0, ptr %7, align 4, !tbaa !8
  br label %23

23:                                               ; preds = %70, %19
  %24 = load i32, ptr %7, align 4, !tbaa !8
  %25 = load ptr, ptr %3, align 8, !tbaa !3
  %26 = getelementptr inbounds nuw %struct.Ivy_Man_t_, ptr %25, i32 0, i32 3
  %27 = load ptr, ptr %26, align 8, !tbaa !12
  %28 = call i32 @Vec_PtrSize(ptr noundef %27)
  %29 = icmp slt i32 %24, %28
  br i1 %29, label %30, label %36

30:                                               ; preds = %23
  %31 = load ptr, ptr %3, align 8, !tbaa !3
  %32 = getelementptr inbounds nuw %struct.Ivy_Man_t_, ptr %31, i32 0, i32 3
  %33 = load ptr, ptr %32, align 8, !tbaa !12
  %34 = load i32, ptr %7, align 4, !tbaa !8
  %35 = call ptr @Vec_PtrEntry(ptr noundef %33, i32 noundef %34)
  store ptr %35, ptr %6, align 8, !tbaa !19
  br label %36

36:                                               ; preds = %30, %23
  %37 = phi i1 [ false, %23 ], [ true, %30 ]
  br i1 %37, label %38, label %73

38:                                               ; preds = %36
  %39 = load ptr, ptr %6, align 8, !tbaa !19
  %40 = icmp eq ptr %39, null
  br i1 %40, label %41, label %42

41:                                               ; preds = %38
  br label %69

42:                                               ; preds = %38
  %43 = load ptr, ptr %6, align 8, !tbaa !19
  %44 = call i32 @Ivy_ObjIsNode(ptr noundef %43)
  %45 = icmp ne i32 %44, 0
  br i1 %45, label %47, label %46

46:                                               ; preds = %42
  br label %70

47:                                               ; preds = %42
  %48 = load ptr, ptr %3, align 8, !tbaa !3
  %49 = load ptr, ptr %6, align 8, !tbaa !19
  %50 = load i32, ptr %4, align 4, !tbaa !8
  %51 = call ptr @Ivy_CutComputeForNode(ptr noundef %48, ptr noundef %49, i32 noundef %50)
  store ptr %51, ptr %5, align 8, !tbaa !42
  %52 = load ptr, ptr %5, align 8, !tbaa !42
  %53 = getelementptr inbounds nuw %struct.Ivy_Store_t_, ptr %52, i32 0, i32 0
  %54 = load i32, ptr %53, align 4, !tbaa !45
  %55 = load i32, ptr %8, align 4, !tbaa !8
  %56 = add nsw i32 %55, %54
  store i32 %56, ptr %8, align 4, !tbaa !8
  %57 = load ptr, ptr %5, align 8, !tbaa !42
  %58 = getelementptr inbounds nuw %struct.Ivy_Store_t_, ptr %57, i32 0, i32 1
  %59 = load i32, ptr %58, align 4, !tbaa !89
  %60 = load i32, ptr %9, align 4, !tbaa !8
  %61 = add nsw i32 %60, %59
  store i32 %61, ptr %9, align 4, !tbaa !8
  %62 = load ptr, ptr %5, align 8, !tbaa !42
  %63 = getelementptr inbounds nuw %struct.Ivy_Store_t_, ptr %62, i32 0, i32 3
  %64 = load i32, ptr %63, align 4, !tbaa !94
  %65 = load i32, ptr %11, align 4, !tbaa !8
  %66 = add nsw i32 %65, %64
  store i32 %66, ptr %11, align 4, !tbaa !8
  %67 = load i32, ptr %10, align 4, !tbaa !8
  %68 = add nsw i32 %67, 1
  store i32 %68, ptr %10, align 4, !tbaa !8
  br label %69

69:                                               ; preds = %47, %41
  br label %70

70:                                               ; preds = %69, %46
  %71 = load i32, ptr %7, align 4, !tbaa !8
  %72 = add nsw i32 %71, 1
  store i32 %72, ptr %7, align 4, !tbaa !8
  br label %23, !llvm.loop !95

73:                                               ; preds = %36
  %74 = load i32, ptr %8, align 4, !tbaa !8
  %75 = load i32, ptr %9, align 4, !tbaa !8
  %76 = load ptr, ptr %3, align 8, !tbaa !3
  %77 = call i32 @Ivy_ManPiNum(ptr noundef %76)
  %78 = load ptr, ptr %3, align 8, !tbaa !3
  %79 = call i32 @Ivy_ManNodeNum(ptr noundef %78)
  %80 = add nsw i32 %77, %79
  %81 = load i32, ptr %10, align 4, !tbaa !8
  %82 = load i32, ptr %11, align 4, !tbaa !8
  %83 = call i32 (ptr, ...) @printf(ptr noundef @.str.6, i32 noundef %74, i32 noundef %75, i32 noundef %80, i32 noundef %81, i32 noundef %82)
  call void (i32, ptr, ...) @Abc_Print(i32 noundef 1, ptr noundef @.str.7, ptr noundef @.str.8)
  %84 = call i64 @Abc_Clock()
  %85 = load i64, ptr %12, align 8, !tbaa !10
  %86 = sub nsw i64 %84, %85
  %87 = sitofp i64 %86 to double
  %88 = fmul double 1.000000e+00, %87
  %89 = fdiv double %88, 1.000000e+06
  call void (i32, ptr, ...) @Abc_Print(i32 noundef 1, ptr noundef @.str.9, double noundef %89)
  store i32 0, ptr %13, align 4
  br label %90

90:                                               ; preds = %73, %17
  call void @llvm.lifetime.end.p0(i64 8, ptr %12) #10
  call void @llvm.lifetime.end.p0(i64 4, ptr %11) #10
  call void @llvm.lifetime.end.p0(i64 4, ptr %10) #10
  call void @llvm.lifetime.end.p0(i64 4, ptr %9) #10
  call void @llvm.lifetime.end.p0(i64 4, ptr %8) #10
  call void @llvm.lifetime.end.p0(i64 4, ptr %7) #10
  call void @llvm.lifetime.end.p0(i64 8, ptr %6) #10
  call void @llvm.lifetime.end.p0(i64 8, ptr %5) #10
  %91 = load i32, ptr %13, align 4
  switch i32 %91, label %93 [
    i32 0, label %92
    i32 1, label %92
  ]

92:                                               ; preds = %90, %90
  ret void

93:                                               ; preds = %90
  unreachable
}