; Function Attrs: nounwind uwtable
define void @Ivy_CutComputeAll(ptr noundef readonly captures(none) %0, i32 noundef %1) local_unnamed_addr #0 {
  %3 = alloca %struct.timespec, align 8
  %4 = alloca %struct.timespec, align 8
  call void @llvm.lifetime.start.p0(i64 16, ptr nonnull %4) #19
  %5 = call i32 @clock_gettime(i32 noundef 1, ptr noundef nonnull %4) #19
  %6 = icmp slt i32 %5, 0
  br i1 %6, label %Abc_Clock.exit, label %7

7:                                                ; preds = %2
  %8 = load i64, ptr %4, align 8, !tbaa !3
  %.neg44 = mul i64 %8, -1000000
  %9 = getelementptr inbounds nuw i8, ptr %4, i64 8
  %10 = load i64, ptr %9, align 8, !tbaa !8
  %.neg = sdiv i64 %10, -1000
  %.neg45 = add i64 %.neg, %.neg44
  br label %Abc_Clock.exit

Abc_Clock.exit:                                   ; preds = %2, %7
  %.0.i.neg = phi i64 [ %.neg45, %7 ], [ 1, %2 ]
  call void @llvm.lifetime.end.p0(i64 16, ptr nonnull %4) #19
  %11 = icmp sgt i32 %1, 6
  br i1 %11, label %12, label %14

12:                                               ; preds = %Abc_Clock.exit
  %13 = call i32 (ptr, ...) @printf(ptr noundef nonnull dereferenceable(1) @.str.5, i32 noundef 6)
  br label %61

14:                                               ; preds = %Abc_Clock.exit
  %15 = getelementptr i8, ptr %0, i64 140
  %.val37 = load i32, ptr %15, align 4, !tbaa !43
  %16 = getelementptr i8, ptr %0, i64 144
  %.val38 = load i32, ptr %16, align 8, !tbaa !43
  %17 = add nsw i32 %.val37, %.val38
  %18 = sub nsw i32 0, %17
  %19 = getelementptr inbounds nuw i8, ptr %0, i64 24
  %20 = load ptr, ptr %19, align 8, !tbaa !9
  %21 = getelementptr i8, ptr %20, i64 4
  %.val46 = load i32, ptr %21, align 4, !tbaa !19
  %22 = icmp sgt i32 %.val46, 0
  br i1 %22, label %.lr.ph, label %.critedge

.lr.ph:                                           ; preds = %14, %40
  %23 = phi ptr [ %41, %40 ], [ %20, %14 ]
  %indvars.iv = phi i64 [ %indvars.iv.next, %40 ], [ 0, %14 ]
  %.02550 = phi i32 [ %.1, %40 ], [ 0, %14 ]
  %.02649 = phi i32 [ %.127, %40 ], [ 0, %14 ]
  %.02848 = phi i32 [ %.129, %40 ], [ %18, %14 ]
  %.03047 = phi i32 [ %.131, %40 ], [ %18, %14 ]
  %24 = getelementptr i8, ptr %23, i64 8
  %.val34 = load ptr, ptr %24, align 8, !tbaa !21
  %25 = getelementptr inbounds nuw ptr, ptr %.val34, i64 %indvars.iv
  %26 = load ptr, ptr %25, align 8, !tbaa !22
  %27 = icmp eq ptr %26, null
  br i1 %27, label %40, label %28

28:                                               ; preds = %.lr.ph
  %29 = getelementptr i8, ptr %26, i64 8
  %.val35 = load i32, ptr %29, align 8
  %30 = and i32 %.val35, 15
  %31 = add nsw i32 %30, -7
  %narrow.i = icmp ult i32 %31, -2
  br i1 %narrow.i, label %40, label %32

32:                                               ; preds = %28
  %.val36 = load i32, ptr %26, align 8, !tbaa !35
  call fastcc void @Ivy_CutComputeForNode(ptr noundef nonnull %0, i32 %.val36, i32 noundef %1)
  %33 = load i32, ptr @Ivy_CutComputeForNode.CutStore, align 4, !tbaa !38
  %34 = add nsw i32 %33, %.03047
  %35 = load i32, ptr getelementptr inbounds nuw (i8, ptr @Ivy_CutComputeForNode.CutStore, i64 4), align 4, !tbaa !111
  %36 = add nsw i32 %35, %.02848
  %37 = load i32, ptr getelementptr inbounds nuw (i8, ptr @Ivy_CutComputeForNode.CutStore, i64 12), align 4, !tbaa !116
  %38 = add nsw i32 %37, %.02550
  %39 = add nsw i32 %.02649, 1
  %.pre = load ptr, ptr %19, align 8, !tbaa !9
  br label %40

40:                                               ; preds = %32, %.lr.ph, %28
  %41 = phi ptr [ %23, %.lr.ph ], [ %.pre, %32 ], [ %23, %28 ]
  %.131 = phi i32 [ %.03047, %.lr.ph ], [ %34, %32 ], [ %.03047, %28 ]
  %.129 = phi i32 [ %.02848, %.lr.ph ], [ %36, %32 ], [ %.02848, %28 ]
  %.127 = phi i32 [ %.02649, %.lr.ph ], [ %39, %32 ], [ %.02649, %28 ]
  %.1 = phi i32 [ %.02550, %.lr.ph ], [ %38, %32 ], [ %.02550, %28 ]
  %indvars.iv.next = add nuw nsw i64 %indvars.iv, 1
  %42 = getelementptr i8, ptr %41, i64 4
  %.val = load i32, ptr %42, align 4, !tbaa !19
  %43 = sext i32 %.val to i64
  %44 = icmp slt i64 %indvars.iv.next, %43
  br i1 %44, label %.lr.ph, label %.critedge.loopexit, !llvm.loop !117

.critedge.loopexit:                               ; preds = %40
  %.val39.pre = load i32, ptr %15, align 4, !tbaa !43
  %.val40.pre = load i32, ptr %16, align 8, !tbaa !43
  br label %.critedge

.critedge:                                        ; preds = %.critedge.loopexit, %14
  %.val40 = phi i32 [ %.val38, %14 ], [ %.val40.pre, %.critedge.loopexit ]
  %.val39 = phi i32 [ %.val37, %14 ], [ %.val39.pre, %.critedge.loopexit ]
  %.030.lcssa = phi i32 [ %18, %14 ], [ %.131, %.critedge.loopexit ]
  %.028.lcssa = phi i32 [ %18, %14 ], [ %.129, %.critedge.loopexit ]
  %.026.lcssa = phi i32 [ 0, %14 ], [ %.127, %.critedge.loopexit ]
  %.025.lcssa = phi i32 [ 0, %14 ], [ %.1, %.critedge.loopexit ]
  %45 = getelementptr i8, ptr %0, i64 124
  %.val41 = load i32, ptr %45, align 4, !tbaa !43
  %46 = add i32 %.val39, %.val41
  %47 = add i32 %46, %.val40
  %48 = call i32 (ptr, ...) @printf(ptr noundef nonnull dereferenceable(1) @.str.6, i32 noundef %.030.lcssa, i32 noundef %.028.lcssa, i32 noundef %47, i32 noundef %.026.lcssa, i32 noundef %.025.lcssa)
  call void (i32, ptr, ...) @Abc_Print(i32 poison, ptr noundef nonnull @.str.7, ptr noundef nonnull @.str.8)
  call void @llvm.lifetime.start.p0(i64 16, ptr nonnull %3) #19
  %49 = call i32 @clock_gettime(i32 noundef 1, ptr noundef nonnull %3) #19
  %50 = icmp slt i32 %49, 0
  br i1 %50, label %Abc_Clock.exit43, label %51

51:                                               ; preds = %.critedge
  %52 = load i64, ptr %3, align 8, !tbaa !3
  %53 = mul nsw i64 %52, 1000000
  %54 = getelementptr inbounds nuw i8, ptr %3, i64 8
  %55 = load i64, ptr %54, align 8, !tbaa !8
  %56 = sdiv i64 %55, 1000
  %57 = add nsw i64 %56, %53
  br label %Abc_Clock.exit43

Abc_Clock.exit43:                                 ; preds = %.critedge, %51
  %.0.i42 = phi i64 [ %57, %51 ], [ -1, %.critedge ]
  call void @llvm.lifetime.end.p0(i64 16, ptr nonnull %3) #19
  %58 = add i64 %.0.i42, %.0.i.neg
  %59 = sitofp i64 %58 to double
  %60 = fdiv double %59, 1.000000e+06
  call void (i32, ptr, ...) @Abc_Print(i32 poison, ptr noundef nonnull @.str.9, double noundef %60)
  br label %61

61:                                               ; preds = %Abc_Clock.exit43, %12
  ret void
}